; Function Attrs: nounwind uwtable
define i32 @H5Tget_strpad(i64 noundef %0) local_unnamed_addr #0 {
  %2 = load i8, ptr @H5_libinit_g, align 1
  %3 = trunc i8 %2 to i1
  %4 = load i8, ptr @H5_libterm_g, align 1
  %5 = trunc i8 %4 to i1
  %6 = select i1 %3, i1 true, i1 %5
  br i1 %6, label %14, label %7

7:                                                ; preds = %1
  %8 = tail call i32 @H5_init_library() #2
  %9 = icmp slt i32 %8, 0
  br i1 %9, label %10, label %14

10:                                               ; preds = %7
  %11 = load i64, ptr @H5E_FUNC_g, align 8
  %12 = load i64, ptr @H5E_CANTINIT_g, align 8
  %13 = tail call i32 (ptr, ptr, i32, i64, i64, ptr, ...) @H5E_printf_stack(ptr noundef nonnull @.str, ptr noundef nonnull @__func__.H5Tget_strpad, i32 noundef 45, i64 noundef %11, i64 noundef %12, ptr noundef nonnull @.str.1) #2
  br label %.thread36

14:                                               ; preds = %7, %1
  %15 = tail call i32 @H5CX_push() #2
  %16 = icmp slt i32 %15, 0
  br i1 %16, label %17, label %21

17:                                               ; preds = %14
  %18 = load i64, ptr @H5E_FUNC_g, align 8
  %19 = load i64, ptr @H5E_CANTSET_g, align 8
  %20 = tail call i32 (ptr, ptr, i32, i64, i64, ptr, ...) @H5E_printf_stack(ptr noundef nonnull @.str, ptr noundef nonnull @__func__.H5Tget_strpad, i32 noundef 45, i64 noundef %18, i64 noundef %19, ptr noundef nonnull @.str.2) #2
  br label %.thread36

21:                                               ; preds = %14
  %22 = tail call i32 @H5E_clear_stack() #2
  %23 = tail call ptr @H5I_object_verify(i64 noundef %0, i32 noundef 3) #2
  %24 = icmp eq ptr %23, null
  br i1 %24, label %29, label %.preheader

.preheader:                                       ; preds = %21
  %25 = getelementptr inbounds i8, ptr %23, i64 40
  %26 = load ptr, ptr %25, align 8
  %27 = getelementptr inbounds i8, ptr %26, i64 32
  %28 = load ptr, ptr %27, align 8
  %.not45 = icmp eq ptr %28, null
  br i1 %.not45, label %.critedge, label %.lr.ph

29:                                               ; preds = %21
  %30 = load i64, ptr @H5E_ARGS_g, align 8
  %31 = load i64, ptr @H5E_BADTYPE_g, align 8
  %32 = tail call i32 (ptr, ptr, i32, i64, i64, ptr, ...) @H5E_printf_stack(ptr noundef nonnull @.str, ptr noundef nonnull @__func__.H5Tget_strpad, i32 noundef 49, i64 noundef %30, i64 noundef %31, ptr noundef nonnull @.str.3) #2
  br label %.thread42

.lr.ph:                                           ; preds = %.preheader, %.fold.split
  %33 = phi ptr [ %44, %.fold.split ], [ %28, %.preheader ]
  %34 = phi ptr [ %42, %.fold.split ], [ %26, %.preheader ]
  %35 = getelementptr inbounds i8, ptr %34, i64 12
  %36 = load i32, ptr %35, align 4
  switch i32 %36, label %.fold.split [
    i32 3, label %.critedge
    i32 9, label %37
  ]

37:                                               ; preds = %.lr.ph
  %38 = getelementptr inbounds i8, ptr %34, i64 48
  %39 = load i32, ptr %38, align 8
  %40 = icmp eq i32 %39, 1
  br i1 %40, label %.critedge, label %.fold.split

.fold.split:                                      ; preds = %.lr.ph, %37
  %41 = getelementptr inbounds i8, ptr %33, i64 40
  %42 = load ptr, ptr %41, align 8
  %43 = getelementptr inbounds i8, ptr %42, i64 32
  %44 = load ptr, ptr %43, align 8
  %.not = icmp eq ptr %44, null
  br i1 %.not, label %.critedge, label %.lr.ph

.critedge:                                        ; preds = %37, %.fold.split, %.lr.ph, %.preheader
  %.lcssa = phi ptr [ %26, %.preheader ], [ %34, %.lr.ph ], [ %42, %.fold.split ], [ %34, %37 ]
  %45 = getelementptr inbounds i8, ptr %.lcssa, i64 12
  %46 = load i32, ptr %45, align 4
  switch i32 %46, label %51 [
    i32 3, label %56
    i32 9, label %47
  ]

47:                                               ; preds = %.critedge
  %48 = getelementptr inbounds i8, ptr %.lcssa, i64 48
  %49 = load i32, ptr %48, align 8
  %50 = icmp eq i32 %49, 1
  br i1 %50, label %56, label %51

51:                                               ; preds = %.critedge, %47
  %52 = load i64, ptr @H5E_DATATYPE_g, align 8
  %53 = load i64, ptr @H5E_UNSUPPORTED_g, align 8
  %54 = tail call i32 (ptr, ptr, i32, i64, i64, ptr, ...) @H5E_printf_stack(ptr noundef nonnull @.str, ptr noundef nonnull @__func__.H5Tget_strpad, i32 noundef 53, i64 noundef %52, i64 noundef %53, ptr noundef nonnull @.str.4) #2
  br label %.thread42

.thread42:                                        ; preds = %51, %29
  %55 = tail call i32 @H5CX_pop(i1 noundef zeroext true) #2
  br label %.thread36

56:                                               ; preds = %47, %.critedge
  %.sink = phi i64 [ 84, %.critedge ], [ 60, %47 ]
  %57 = getelementptr inbounds i8, ptr %.lcssa, i64 %.sink
  %.019.ph = load i32, ptr %57, align 4
  %58 = tail call i32 @H5CX_pop(i1 noundef zeroext true) #2
  br label %60

.thread36:                                        ; preds = %17, %10, %.thread42
  %59 = tail call i32 @H5E_dump_api_stack() #2
  br label %60

60:                                               ; preds = %56, %.thread36
  %.0193139 = phi i32 [ -1, %.thread36 ], [ %.019.ph, %56 ]
  ret i32 %.0193139
}